target datalayout = "e-m:e-p270:32:32-p271:32:32-p272:64:64-i64:64-i128:128-f80:128-n8:16:32:64-S128"
target triple = "x86_64-pc-linux-gnu"

%struct.evhttp_uri = type { i32, ptr, ptr, ptr, i32, ptr, ptr, ptr, ptr }

; Function Attrs: nounwind uwtable
define void @evhttp_uri_free(ptr noundef %0) #0 {
  %2 = alloca ptr, align 8
  store ptr %0, ptr %2, align 8
  %3 = load ptr, ptr %2, align 8
  %4 = getelementptr inbounds nuw %struct.evhttp_uri, ptr %3, i32 0, i32 1
  %5 = load ptr, ptr %4, align 8
  %6 = icmp ne ptr %5, null
  br i1 %6, label %7, label %11

7:                                                ; preds = %1
  %8 = load ptr, ptr %2, align 8
  %9 = getelementptr inbounds nuw %struct.evhttp_uri, ptr %8, i32 0, i32 1
  %10 = load ptr, ptr %9, align 8
  call void @event_mm_free_(ptr noundef %10)
  br label %11

11:                                               ; preds = %7, %1
  %12 = load ptr, ptr %2, align 8
  %13 = getelementptr inbounds nuw %struct.evhttp_uri, ptr %12, i32 0, i32 2
  %14 = load ptr, ptr %13, align 8
  %15 = icmp ne ptr %14, null
  br i1 %15, label %16, label %20

16:                                               ; preds = %11
  %17 = load ptr, ptr %2, align 8
  %18 = getelementptr inbounds nuw %struct.evhttp_uri, ptr %17, i32 0, i32 2
  %19 = load ptr, ptr %18, align 8
  call void @event_mm_free_(ptr noundef %19)
  br label %20

20:                                               ; preds = %16, %11
  %21 = load ptr, ptr %2, align 8
  %22 = getelementptr inbounds nuw %struct.evhttp_uri, ptr %21, i32 0, i32 3
  %23 = load ptr, ptr %22, align 8
  %24 = icmp ne ptr %23, null
  br i1 %24, label %25, label %29

25:                                               ; preds = %20
  %26 = load ptr, ptr %2, align 8
  %27 = getelementptr inbounds nuw %struct.evhttp_uri, ptr %26, i32 0, i32 3
  %28 = load ptr, ptr %27, align 8
  call void @event_mm_free_(ptr noundef %28)
  br label %29

29:                                               ; preds = %25, %20
  %30 = load ptr, ptr %2, align 8
  %31 = getelementptr inbounds nuw %struct.evhttp_uri, ptr %30, i32 0, i32 5
  %32 = load ptr, ptr %31, align 8
  %33 = icmp ne ptr %32, null
  br i1 %33, label %34, label %38

34:                                               ; preds = %29
  %35 = load ptr, ptr %2, align 8
  %36 = getelementptr inbounds nuw %struct.evhttp_uri, ptr %35, i32 0, i32 5
  %37 = load ptr, ptr %36, align 8
  call void @event_mm_free_(ptr noundef %37)
  br label %38

38:                                               ; preds = %34, %29
  %39 = load ptr, ptr %2, align 8
  %40 = getelementptr inbounds nuw %struct.evhttp_uri, ptr %39, i32 0, i32 6
  %41 = load ptr, ptr %40, align 8
  %42 = icmp ne ptr %41, null
  br i1 %42, label %43, label %47

43:                                               ; preds = %38
  %44 = load ptr, ptr %2, align 8
  %45 = getelementptr inbounds nuw %struct.evhttp_uri, ptr %44, i32 0, i32 6
  %46 = load ptr, ptr %45, align 8
  call void @event_mm_free_(ptr noundef %46)
  br label %47

47:                                               ; preds = %43, %38
  %48 = load ptr, ptr %2, align 8
  %49 = getelementptr inbounds nuw %struct.evhttp_uri, ptr %48, i32 0, i32 7
  %50 = load ptr, ptr %49, align 8
  %51 = icmp ne ptr %50, null
  br i1 %51, label %52, label %56

52:                                               ; preds = %47
  %53 = load ptr, ptr %2, align 8
  %54 = getelementptr inbounds nuw %struct.evhttp_uri, ptr %53, i32 0, i32 7
  %55 = load ptr, ptr %54, align 8
  call void @event_mm_free_(ptr noundef %55)
  br label %56

56:                                               ; preds = %52, %47
  %57 = load ptr, ptr %2, align 8
  %58 = getelementptr inbounds nuw %struct.evhttp_uri, ptr %57, i32 0, i32 8
  %59 = load ptr, ptr %58, align 8
  %60 = icmp ne ptr %59, null
  br i1 %60, label %61, label %65

61:                                               ; preds = %56
  %62 = load ptr, ptr %2, align 8
  %63 = getelementptr inbounds nuw %struct.evhttp_uri, ptr %62, i32 0, i32 8
  %64 = load ptr, ptr %63, align 8
  call void @event_mm_free_(ptr noundef %64)
  br label %65

65:                                               ; preds = %61, %56
  %66 = load ptr, ptr %2, align 8
  call void @event_mm_free_(ptr noundef %66)
  ret void
}