; Function Attrs: nounwind uwtable
define void @evhttp_uri_free(ptr noundef %0) local_unnamed_addr #0 {
  %2 = getelementptr inbounds nuw i8, ptr %0, i64 8
  %3 = load ptr, ptr %2, align 8
  %.not = icmp eq ptr %3, null
  br i1 %.not, label %5, label %4

4:                                                ; preds = %1
  tail call void @event_mm_free_(ptr noundef nonnull %3) #18
  br label %5

5:                                                ; preds = %4, %1
  %6 = getelementptr inbounds nuw i8, ptr %0, i64 16
  %7 = load ptr, ptr %6, align 8
  %.not21 = icmp eq ptr %7, null
  br i1 %.not21, label %9, label %8

8:                                                ; preds = %5
  tail call void @event_mm_free_(ptr noundef nonnull %7) #18
  br label %9

9:                                                ; preds = %8, %5
  %10 = getelementptr inbounds nuw i8, ptr %0, i64 24
  %11 = load ptr, ptr %10, align 8
  %.not22 = icmp eq ptr %11, null
  br i1 %.not22, label %13, label %12

12:                                               ; preds = %9
  tail call void @event_mm_free_(ptr noundef nonnull %11) #18
  br label %13

13:                                               ; preds = %12, %9
  %14 = getelementptr inbounds nuw i8, ptr %0, i64 40
  %15 = load ptr, ptr %14, align 8
  %.not23 = icmp eq ptr %15, null
  br i1 %.not23, label %17, label %16

16:                                               ; preds = %13
  tail call void @event_mm_free_(ptr noundef nonnull %15) #18
  br label %17

17:                                               ; preds = %16, %13
  %18 = getelementptr inbounds nuw i8, ptr %0, i64 48
  %19 = load ptr, ptr %18, align 8
  %.not24 = icmp eq ptr %19, null
  br i1 %.not24, label %21, label %20

20:                                               ; preds = %17
  tail call void @event_mm_free_(ptr noundef nonnull %19) #18
  br label %21

21:                                               ; preds = %20, %17
  %22 = getelementptr inbounds nuw i8, ptr %0, i64 56
  %23 = load ptr, ptr %22, align 8
  %.not25 = icmp eq ptr %23, null
  br i1 %.not25, label %25, label %24

24:                                               ; preds = %21
  tail call void @event_mm_free_(ptr noundef nonnull %23) #18
  br label %25

25:                                               ; preds = %24, %21
  %26 = getelementptr inbounds nuw i8, ptr %0, i64 64
  %27 = load ptr, ptr %26, align 8
  %.not26 = icmp eq ptr %27, null
  br i1 %.not26, label %29, label %28

28:                                               ; preds = %25
  tail call void @event_mm_free_(ptr noundef nonnull %27) #18
  br label %29

29:                                               ; preds = %28, %25
  tail call void @event_mm_free_(ptr noundef nonnull %0) #18
  ret void
}